#include <math.h>
#include <stdio.h>
#include <stdlib.h>
#include <string.h>

int main()
{
	int n,len[50],i;
	char str[50][100];
	scanf("%d",&n);
	for(i=0;i<n;i++)
	{
		scanf("%s",str[i]);
		len[i]=strlen(str[i]);
		if(str[i][len[i]-1]=='r'&&str[i][len[i]-2]=='e')
		{
			str[i][len[i]-2]=0;
		}
		else if(str[i][len[i]-1]=='y'&&str[i][len[i]-2]=='l')
		{
			str[i][len[i]-2]=0;
		}
		else if(str[i][len[i]-1]=='g'&&str[i][len[i]-2]=='n'&&str[i][len[i]-3]=='i')
		{
			str[i][len[i]-3]=0;
		}
		printf("%s\n",str[i]);
	}
	return 0;
}
